(lp0
S'R_mv2; 3296, 2308, 999, 0, 0, 0, 200, 2400, 1800, 720, 240, 2, 3296, 2308, 999, 0, 0, 0'
p1
aS'R_look; 2500, 2500, 2000, 186, 240, 21'
p2
aS'R_impat; 0, 3621, 4860, 545, 120, 21'
p3
aS'R_laugh; 1000, 700, 7000, -456, 150, 21, 2000, 2000, 2000, 580, 90, 21, 1500, 1500, 3500, 338, 90, 21, 1700, 1700, 3200, 338, 90, 21, 1500, 1500, 3500, 338, 90, 21, 1700, 1700, 3200, 338, 90, 21, 1500, 1500, 3500, 338, 90, 21, 1700, 1700, 3200, 338, 90, 21'
p4
aS'R_pretentious_look; 2000, 2000, 1300, 165, 90, 21'
p5
aS'R_ttt; 200, 2400, 1800, 720, 240, 21'
p6
aS'R_nudge; 2200, 2200, 1700, 630, 270, 21, 2700, 2700, 2200, 57, 240, 21, 2400, 2400, 1700, 569, 270, 21, 2900, 2900, 2200, 22, 270, 21'
p7
aS'R_sad_turn; 1000, -2700, 200, 930, 270, 21'
p8
aS'R_inhale; 1000, -2700, 1000, 547, 300, 21'
p9
aS'R_1_weep; 1000, -2700, 400, 739, 150, 21'
p10
aS'R_2_weep; 1000, -2700, 300, 819, 150, 21'
p11
aS'R_3_weep; 1000, -2700, 200, 870, 150, 21'
p12
aS'R_4_weep; 1000, -2700, 100, 950, 120, 21'
p13
aS'R_5_weep; 1000, -2700, 0, 1030, 120, 21'
p14
aS'R_sigh_up; 1000, -3000, 1700, 209, 180, 21'
p15
aS'R_sigh_down; 1000, -2500, 0, 940, 165, 21'
p16
aS'R_curl_up; 1573, 1574, 1262, 760, 150, 21'
p17
aS'R_look_distance; 1000, -2500, 6000, 80, 240, 21'
p18
aS'R_1_sniff; 1000, 4000, -700, 358, 240, 21, 1000, 4000, -700, 298, 270, 21, 1000, 4000, -700, 358, 240, 21, 1000, 4000, -700, 298, 270, 21,  1000, 4000, -700, 358, 240, 21'
p19
aS'R_2_sniff; 4000, -100, -500, 346, 240, 21, 4000, -100, -500, 286, 240, 21, 4000, -100, -500, 346, 240, 21, 4000, -100, -500, 286, 240, 21, 4000, -100, -500, 346, 240, 21'
p20
aS'R_yawn; 1100, 1100, 7000, -850, 210, 21'
p21
aS'R_slouch; 2400, 2400, 1000, 602, 210, 21, 2400, 2400, 1000, 151, 240, 21'
p22
aS'R_scrunch_up; 400, 3500, 300, 186, 240, 21'
p23
aS'R_1_lookaround; 4000, 1500, 3000, 185, 240, 21'
p24
aS'R_2_lookaround; 500, 4000, 2000, 185, 240, 21'
p25
aS'R_3_lookaround; 3000, 2000, 4000, -39, 240, 21'
p26
aS'R_head_bobble; 3600, -100, 3500, 187, 240, 21, 4000, -100, 5000, 310, 240, 21, 4000, -100, 2000, 117, 240, 21, 4000, -100, 5000, 310, 240, 21, 4000, -100, 2000, 117, 240, 21, 3600, -100, 3500, 187, 240, 21'
p27
aS'R_squirrel; 4500, -1200, 5000, -195, 240, 21'
p28
aS'R_follow_squirrel; 3000, 4000, 3000, 82, 240, 21'
p29
aS'R_spin_position; 1500, 1500, 800, 64, 240, 21'
p30
a.