(lp0
S'R_mv2; 3296, 2308, 999, 0, 0, 0, 200, 2400, 1800, 720, 240, 2, 3296, 2308, 999, 0, 0, 0'
p1
aS'R_look; 2500, 2500, 2000, 186, 240, 21'
p2
aS'R_impat; 0, 3621, 4860, 545, 120, 21'
p3
aS'R_laugh; 1000, 700, 7000, -456, 150, 21, 2000, 2000, 2000, 580, 90, 21, 1500, 1500, 3500, 338, 90, 21, 1700, 1700, 3200, 338, 90, 21, 1500, 1500, 3500, 338, 90, 21, 1700, 1700, 3200, 338, 90, 21, 1500, 1500, 3500, 338, 90, 21, 1700, 1700, 3200, 338, 90, 21'
p4
aS'R_pretentious_look; 2000, 2000, 1300, 165, 90, 21'
p5
aS'R_ttt; 200, 2400, 1800, 720, 240, 21'
p6
aS'R_nudge; 2200, 2200, 1700, 630, 270, 21, 2700, 2700, 2200, 57, 240, 21, 2400, 2400, 1700, 569, 270, 21, 2900, 2900, 2200, 22, 270, 21'
p7
aS'R_sad_turn; 1000, -2700, 200, 930, 270, 21'
p8
aS'R_inhale; 1000, -2700, 1000, 547, 300, 21'
p9
aS'R_1_weep; 1000, -2700, 400, 739, 150, 21'
p10
aS'R_2_weep; 1000, -2700, 300, 819, 150, 21'
p11
aS'R_3_weep; 1000, -2700, 200, 870, 150, 21'
p12
a.